; ModuleID = '57/280.c'
source_filename = "57/280.c"
target datalayout = "e-m:e-p270:32:32-p271:32:32-p272:64:64-i64:64-f80:128-n8:16:32:64-S128"
target triple = "x86_64-pc-linux-gnu"

@.str = private unnamed_addr constant [3 x i8] c"%d\00", align 1
@.str.1 = private unnamed_addr constant [3 x i8] c"%s\00", align 1
@.str.2 = private unnamed_addr constant [4 x i8] c"%s\0A\00", align 1

; Function Attrs: noinline nounwind uwtable
define dso_local i32 @main() #0 {
  %1 = alloca i32, align 4
  %2 = alloca i32, align 4
  %3 = alloca i32, align 4
  %4 = alloca i32, align 4
  %5 = alloca [1000 x i8], align 16
  store i32 0, i32* %1, align 4
  %6 = call i32 (i8*, ...) @__isoc99_scanf(i8* getelementptr inbounds ([3 x i8], [3 x i8]* @.str, i64 0, i64 0), i32* %2)
  store i32 0, i32* %3, align 4
  br label %7

7:                                                ; preds = %86, %0
  %8 = load i32, i32* %3, align 4
  %9 = load i32, i32* %2, align 4
  %10 = icmp slt i32 %8, %9
  br i1 %10, label %11, label %89

11:                                               ; preds = %7
  %12 = getelementptr inbounds [1000 x i8], [1000 x i8]* %5, i64 0, i64 0
  %13 = call i32 (i8*, ...) @__isoc99_scanf(i8* getelementptr inbounds ([3 x i8], [3 x i8]* @.str.1, i64 0, i64 0), i8* %12)
  %14 = getelementptr inbounds [1000 x i8], [1000 x i8]* %5, i64 0, i64 0
  %15 = call i64 @strlen(i8* %14) #3
  %16 = trunc i64 %15 to i32
  store i32 %16, i32* %4, align 4
  %17 = load i32, i32* %4, align 4
  %18 = sub nsw i32 %17, 1
  %19 = sext i32 %18 to i64
  %20 = getelementptr inbounds [1000 x i8], [1000 x i8]* %5, i64 0, i64 %19
  %21 = load i8, i8* %20, align 1
  %22 = sext i8 %21 to i32
  %23 = icmp eq i32 %22, 121
  br i1 %23, label %24, label %32

24:                                               ; preds = %11
  %25 = load i32, i32* %4, align 4
  %26 = sub nsw i32 %25, 2
  %27 = sext i32 %26 to i64
  %28 = getelementptr inbounds [1000 x i8], [1000 x i8]* %5, i64 0, i64 %27
  %29 = load i8, i8* %28, align 1
  %30 = sext i8 %29 to i32
  %31 = icmp eq i32 %30, 108
  br i1 %31, label %48, label %32

32:                                               ; preds = %24, %11
  %33 = load i32, i32* %4, align 4
  %34 = sub nsw i32 %33, 1
  %35 = sext i32 %34 to i64
  %36 = getelementptr inbounds [1000 x i8], [1000 x i8]* %5, i64 0, i64 %35
  %37 = load i8, i8* %36, align 1
  %38 = sext i8 %37 to i32
  %39 = icmp eq i32 %38, 114
  br i1 %39, label %48, label %40

40:                                               ; preds = %32
  %41 = load i32, i32* %4, align 4
  %42 = sub nsw i32 %41, 2
  %43 = sext i32 %42 to i64
  %44 = getelementptr inbounds [1000 x i8], [1000 x i8]* %5, i64 0, i64 %43
  %45 = load i8, i8* %44, align 1
  %46 = sext i8 %45 to i32
  %47 = icmp eq i32 %46, 101
  br i1 %47, label %48, label %53

48:                                               ; preds = %40, %32, %24
  %49 = load i32, i32* %4, align 4
  %50 = sub nsw i32 %49, 2
  %51 = sext i32 %50 to i64
  %52 = getelementptr inbounds [1000 x i8], [1000 x i8]* %5, i64 0, i64 %51
  store i8 0, i8* %52, align 1
  br label %83

53:                                               ; preds = %40
  %54 = load i32, i32* %4, align 4
  %55 = sub nsw i32 %54, 1
  %56 = sext i32 %55 to i64
  %57 = getelementptr inbounds [1000 x i8], [1000 x i8]* %5, i64 0, i64 %56
  %58 = load i8, i8* %57, align 1
  %59 = sext i8 %58 to i32
  %60 = icmp eq i32 %59, 103
  br i1 %60, label %61, label %82

61:                                               ; preds = %53
  %62 = load i32, i32* %4, align 4
  %63 = sub nsw i32 %62, 2
  %64 = sext i32 %63 to i64
  %65 = getelementptr inbounds [1000 x i8], [1000 x i8]* %5, i64 0, i64 %64
  %66 = load i8, i8* %65, align 1
  %67 = sext i8 %66 to i32
  %68 = icmp eq i32 %67, 110
  br i1 %68, label %69, label %82

69:                                               ; preds = %61
  %70 = load i32, i32* %4, align 4
  %71 = sub nsw i32 %70, 3
  %72 = sext i32 %71 to i64
  %73 = getelementptr inbounds [1000 x i8], [1000 x i8]* %5, i64 0, i64 %72
  %74 = load i8, i8* %73, align 1
  %75 = sext i8 %74 to i32
  %76 = icmp eq i32 %75, 105
  br i1 %76, label %77, label %82

77:                                               ; preds = %69
  %78 = load i32, i32* %4, align 4
  %79 = sub nsw i32 %78, 3
  %80 = sext i32 %79 to i64
  %81 = getelementptr inbounds [1000 x i8], [1000 x i8]* %5, i64 0, i64 %80
  store i8 0, i8* %81, align 1
  br label %82

82:                                               ; preds = %77, %69, %61, %53
  br label %83

83:                                               ; preds = %82, %48
  %84 = getelementptr inbounds [1000 x i8], [1000 x i8]* %5, i64 0, i64 0
  %85 = call i32 (i8*, ...) @printf(i8* getelementptr inbounds ([4 x i8], [4 x i8]* @.str.2, i64 0, i64 0), i8* %84)
  br label %86

86:                                               ; preds = %83
  %87 = load i32, i32* %3, align 4
  %88 = add nsw i32 %87, 1
  store i32 %88, i32* %3, align 4
  br label %7

89:                                               ; preds = %7
  %90 = call i32 @getchar()
  %91 = call i32 @getchar()
  %92 = load i32, i32* %1, align 4
  ret i32 %92
}

declare dso_local i32 @__isoc99_scanf(i8*, ...) #1

; Function Attrs: nounwind readonly
declare dso_local i64 @strlen(i8*) #2

declare dso_local i32 @printf(i8*, ...) #1

declare dso_local i32 @getchar() #1


!llvm.module.flags = !{!0}
!llvm.ident = !{!1}

!0 = !{i32 1, !"wchar_size", i32 4}
!1 = !{!"clang version 10.0.0-4ubuntu1 "}
